target datalayout = "e-m:e-p270:32:32-p271:32:32-p272:64:64-i64:64-i128:128-f80:128-n8:16:32:64-S128"
target triple = "x86_64-pc-linux-gnu"

%"class.casadi::MXNode" = type { %"class.casadi::SharedObjectInternal", i64, %"class.std::vector", %"class.casadi::Sparsity" }
%"class.casadi::SharedObjectInternal" = type { ptr, i64, ptr }
%"class.std::vector" = type { %"struct.std::_Vector_base" }
%"struct.std::_Vector_base" = type { %"struct.std::_Vector_base<casadi::MX, std::allocator<casadi::MX>>::_Vector_impl" }
%"struct.std::_Vector_base<casadi::MX, std::allocator<casadi::MX>>::_Vector_impl" = type { %"struct.std::_Vector_base<casadi::MX, std::allocator<casadi::MX>>::_Vector_impl_data" }
%"struct.std::_Vector_base<casadi::MX, std::allocator<casadi::MX>>::_Vector_impl_data" = type { ptr, ptr, ptr }
%"class.casadi::Sparsity" = type { %"class.casadi::SharedObject" }
%"class.casadi::SharedObject" = type { ptr }
%"class.casadi::MX" = type { %"class.casadi::SharedObject" }

@_ZTVN6casadi14DenseTransposeE = external unnamed_addr constant { [108 x ptr] }, align 8

; Function Attrs: mustprogress uwtable
define linkonce_odr hidden void @_ZN6casadi14DenseTransposeC2ERKNS_2MXE(ptr noundef nonnull align 8 dereferenceable(64) %0, ptr noundef nonnull align 8 dereferenceable(8) %1) unnamed_addr #4 comdat align 2 {
  %3 = alloca ptr, align 8
  %4 = alloca ptr, align 8
  store ptr %0, ptr %3, align 8
  store ptr %1, ptr %4, align 8
  %5 = load ptr, ptr %3, align 8
  %6 = load ptr, ptr %4, align 8
  call void @_ZN6casadi9TransposeC2ERKNS_2MXE(ptr noundef nonnull align 8 dereferenceable(64) %5, ptr noundef nonnull align 8 dereferenceable(8) %6)
  store ptr getelementptr inbounds ({ [108 x ptr] }, ptr @_ZTVN6casadi14DenseTransposeE, i32 0, i32 0, i32 2), ptr %5, align 8
  ret void
}

; Function Attrs: mustprogress nounwind uwtable
define linkonce_odr hidden void @_ZN6casadi8SparsityD2Ev(ptr noundef nonnull align 8 dereferenceable(8) %0) unnamed_addr #5 comdat align 2 {
  %2 = alloca ptr, align 8
  store ptr %0, ptr %2, align 8
  %3 = load ptr, ptr %2, align 8
  call void @_ZN6casadi12SharedObjectD2Ev(ptr noundef nonnull align 8 dereferenceable(8) %3) #3
  ret void
}

; Function Attrs: mustprogress nounwind uwtable
define linkonce_odr hidden noundef nonnull align 8 dereferenceable(8) ptr @_ZNK6casadi6MXNode8sparsityEv(ptr noundef nonnull align 8 dereferenceable(64) %0) #5 comdat align 2 {
  %2 = alloca ptr, align 8
  store ptr %0, ptr %2, align 8
  %3 = load ptr, ptr %2, align 8
  %4 = getelementptr inbounds %"class.casadi::MXNode", ptr %3, i32 0, i32 3
  ret ptr %4
}

; Function Attrs: mustprogress uwtable
define void @_ZNK6casadi6MXNode13get_transposeEv(ptr dead_on_unwind noalias writable sret(%"class.casadi::MX") align 8 %0, ptr noundef nonnull align 8 dereferenceable(64) %1) unnamed_addr #4 align 2 personality ptr @__gxx_personality_v0 {
  %3 = alloca ptr, align 8
  %4 = alloca ptr, align 8
  %5 = alloca %"class.casadi::Sparsity", align 8
  %6 = alloca ptr, align 8
  %7 = alloca i32, align 4
  %8 = alloca %"class.casadi::MX", align 8
  %9 = alloca i1, align 1
  %10 = alloca %"class.casadi::MX", align 8
  %11 = alloca i1, align 1
  store ptr %0, ptr %3, align 8
  store ptr %1, ptr %4, align 8
  %12 = load ptr, ptr %4, align 8
  %13 = call noundef nonnull align 8 dereferenceable(8) ptr @_ZNK6casadi6MXNode8sparsityEv(ptr noundef nonnull align 8 dereferenceable(64) %12)
  %14 = call noundef zeroext i1 @_ZNK6casadi8Sparsity9is_scalarEb(ptr noundef nonnull align 8 dereferenceable(8) %13, i1 noundef zeroext false)
  br i1 %14, label %15, label %16

15:                                               ; preds = %2
  call void @_ZNK6casadi20SharedObjectInternal16shared_from_thisINS_2MXEEEKT_v(ptr dead_on_unwind writable sret(%"class.casadi::MX") align 8 %0, ptr noundef nonnull align 8 dereferenceable(24) %12)
  br label %66

16:                                               ; preds = %2
  %17 = call noundef nonnull align 8 dereferenceable(8) ptr @_ZNK6casadi6MXNode8sparsityEv(ptr noundef nonnull align 8 dereferenceable(64) %12)
  %18 = call noundef zeroext i1 @_ZNK6casadi8Sparsity9is_vectorEv(ptr noundef nonnull align 8 dereferenceable(8) %17)
  br i1 %18, label %19, label %29

19:                                               ; preds = %16
  %20 = call noundef nonnull align 8 dereferenceable(8) ptr @_ZNK6casadi6MXNode8sparsityEv(ptr noundef nonnull align 8 dereferenceable(64) %12)
  call void @_ZNK6casadi8Sparsity1TEv(ptr dead_on_unwind writable sret(%"class.casadi::Sparsity") align 8 %5, ptr noundef nonnull align 8 dereferenceable(8) %20)
  %21 = load ptr, ptr %12, align 8
  %22 = getelementptr inbounds ptr, ptr %21, i64 65
  %23 = load ptr, ptr %22, align 8
  invoke void %23(ptr dead_on_unwind writable sret(%"class.casadi::MX") align 8 %0, ptr noundef nonnull align 8 dereferenceable(64) %12, ptr noundef nonnull align 8 dereferenceable(8) %5)
          to label %24 unwind label %25

24:                                               ; preds = %19
  call void @_ZN6casadi8SparsityD2Ev(ptr noundef nonnull align 8 dereferenceable(8) %5) #3
  br label %66

25:                                               ; preds = %19
  %26 = landingpad { ptr, i32 }
          cleanup
  %27 = extractvalue { ptr, i32 } %26, 0
  store ptr %27, ptr %6, align 8
  %28 = extractvalue { ptr, i32 } %26, 1
  store i32 %28, ptr %7, align 4
  call void @_ZN6casadi8SparsityD2Ev(ptr noundef nonnull align 8 dereferenceable(8) %5) #3
  br label %67

29:                                               ; preds = %16
  %30 = call noundef nonnull align 8 dereferenceable(8) ptr @_ZNK6casadi6MXNode8sparsityEv(ptr noundef nonnull align 8 dereferenceable(64) %12)
  %31 = call noundef zeroext i1 @_ZNK6casadi8Sparsity8is_denseEv(ptr noundef nonnull align 8 dereferenceable(8) %30)
  br i1 %31, label %32, label %49

32:                                               ; preds = %29
  %33 = call noalias noundef nonnull ptr @_Znwm(i64 noundef 64) #19
  store i1 true, ptr %9, align 1
  invoke void @_ZNK6casadi20SharedObjectInternal16shared_from_thisINS_2MXEEEKT_v(ptr dead_on_unwind writable sret(%"class.casadi::MX") align 8 %8, ptr noundef nonnull align 8 dereferenceable(24) %12)
          to label %34 unwind label %37

34:                                               ; preds = %32
  invoke void @_ZN6casadi14DenseTransposeC2ERKNS_2MXE(ptr noundef nonnull align 8 dereferenceable(64) %33, ptr noundef nonnull align 8 dereferenceable(8) %8)
          to label %35 unwind label %41

35:                                               ; preds = %34
  store i1 false, ptr %9, align 1
  invoke void @_ZN6casadi2MX6createEPNS_6MXNodeE(ptr dead_on_unwind writable sret(%"class.casadi::MX") align 8 %0, ptr noundef %33)
          to label %36 unwind label %41

36:                                               ; preds = %35
  call void @_ZN6casadi2MXD1Ev(ptr noundef nonnull align 8 dereferenceable(8) %8) #3
  br label %66

37:                                               ; preds = %32
  %38 = landingpad { ptr, i32 }
          cleanup
  %39 = extractvalue { ptr, i32 } %38, 0
  store ptr %39, ptr %6, align 8
  %40 = extractvalue { ptr, i32 } %38, 1
  store i32 %40, ptr %7, align 4
  br label %45

41:                                               ; preds = %35, %34
  %42 = landingpad { ptr, i32 }
          cleanup
  %43 = extractvalue { ptr, i32 } %42, 0
  store ptr %43, ptr %6, align 8
  %44 = extractvalue { ptr, i32 } %42, 1
  store i32 %44, ptr %7, align 4
  call void @_ZN6casadi2MXD1Ev(ptr noundef nonnull align 8 dereferenceable(8) %8) #3
  br label %45

45:                                               ; preds = %41, %37
  %46 = load i1, ptr %9, align 1
  br i1 %46, label %47, label %48

47:                                               ; preds = %45
  call void @_ZdlPv(ptr noundef %33) #20
  br label %48

48:                                               ; preds = %47, %45
  br label %67

49:                                               ; preds = %29
  %50 = call noalias noundef nonnull ptr @_Znwm(i64 noundef 64) #19
  store i1 true, ptr %11, align 1
  invoke void @_ZNK6casadi20SharedObjectInternal16shared_from_thisINS_2MXEEEKT_v(ptr dead_on_unwind writable sret(%"class.casadi::MX") align 8 %10, ptr noundef nonnull align 8 dereferenceable(24) %12)
          to label %51 unwind label %54

51:                                               ; preds = %49
  invoke void @_ZN6casadi9TransposeC1ERKNS_2MXE(ptr noundef nonnull align 8 dereferenceable(64) %50, ptr noundef nonnull align 8 dereferenceable(8) %10)
          to label %52 unwind label %58

52:                                               ; preds = %51
  store i1 false, ptr %11, align 1
  invoke void @_ZN6casadi2MX6createEPNS_6MXNodeE(ptr dead_on_unwind writable sret(%"class.casadi::MX") align 8 %0, ptr noundef %50)
          to label %53 unwind label %58

53:                                               ; preds = %52
  call void @_ZN6casadi2MXD1Ev(ptr noundef nonnull align 8 dereferenceable(8) %10) #3
  br label %66

54:                                               ; preds = %49
  %55 = landingpad { ptr, i32 }
          cleanup
  %56 = extractvalue { ptr, i32 } %55, 0
  store ptr %56, ptr %6, align 8
  %57 = extractvalue { ptr, i32 } %55, 1
  store i32 %57, ptr %7, align 4
  br label %62

58:                                               ; preds = %52, %51
  %59 = landingpad { ptr, i32 }
          cleanup
  %60 = extractvalue { ptr, i32 } %59, 0
  store ptr %60, ptr %6, align 8
  %61 = extractvalue { ptr, i32 } %59, 1
  store i32 %61, ptr %7, align 4
  call void @_ZN6casadi2MXD1Ev(ptr noundef nonnull align 8 dereferenceable(8) %10) #3
  br label %62

62:                                               ; preds = %58, %54
  %63 = load i1, ptr %11, align 1
  br i1 %63, label %64, label %65

64:                                               ; preds = %62
  call void @_ZdlPv(ptr noundef %50) #20
  br label %65

65:                                               ; preds = %64, %62
  br label %67

66:                                               ; preds = %53, %36, %24, %15
  ret void

67:                                               ; preds = %65, %48, %25
  %68 = load ptr, ptr %6, align 8
  %69 = load i32, ptr %7, align 4
  %70 = insertvalue { ptr, i32 } poison, ptr %68, 0
  %71 = insertvalue { ptr, i32 } %70, i32 %69, 1
  resume { ptr, i32 } %71
}