; Function Attrs: mustprogress uwtable
define void @_ZNK6casadi6MXNode13get_transposeEv(ptr dead_on_unwind noalias writable sret(%"class.casadi::MX") align 8 %0, ptr noundef nonnull align 8 dereferenceable(64) %1) unnamed_addr #3 align 2 personality ptr @__gxx_personality_v0 {
  %3 = alloca %"class.casadi::Sparsity", align 8
  %4 = alloca %"class.casadi::MX", align 8
  %5 = alloca %"class.casadi::MX", align 8
  %6 = getelementptr inbounds i8, ptr %1, i64 56
  %7 = tail call noundef zeroext i1 @_ZNK6casadi8Sparsity9is_scalarEb(ptr noundef nonnull align 8 dereferenceable(8) %6, i1 noundef zeroext false)
  br i1 %7, label %8, label %9

8:                                                ; preds = %2
  tail call void @_ZNK6casadi20SharedObjectInternal16shared_from_thisINS_2MXEEEKT_v(ptr dead_on_unwind writable sret(%"class.casadi::MX") align 8 %0, ptr noundef nonnull align 8 dereferenceable(24) %1)
  br label %39

9:                                                ; preds = %2
  %10 = tail call noundef zeroext i1 @_ZNK6casadi8Sparsity9is_vectorEv(ptr noundef nonnull align 8 dereferenceable(8) %6)
  br i1 %10, label %11, label %18

11:                                               ; preds = %9
  call void @_ZNK6casadi8Sparsity1TEv(ptr dead_on_unwind nonnull writable sret(%"class.casadi::Sparsity") align 8 %3, ptr noundef nonnull align 8 dereferenceable(8) %6)
  %12 = load ptr, ptr %1, align 8
  %13 = getelementptr inbounds i8, ptr %12, i64 520
  %14 = load ptr, ptr %13, align 8
  invoke void %14(ptr dead_on_unwind writable sret(%"class.casadi::MX") align 8 %0, ptr noundef nonnull align 8 dereferenceable(64) %1, ptr noundef nonnull align 8 dereferenceable(8) %3)
          to label %15 unwind label %16

15:                                               ; preds = %11
  call void @_ZN6casadi12SharedObjectD2Ev(ptr noundef nonnull align 8 dereferenceable(8) %3) #31
  br label %39

16:                                               ; preds = %11
  %17 = landingpad { ptr, i32 }
          cleanup
  call void @_ZN6casadi12SharedObjectD2Ev(ptr noundef nonnull align 8 dereferenceable(8) %3) #31
  br label %40

18:                                               ; preds = %9
  %19 = tail call noundef zeroext i1 @_ZNK6casadi8Sparsity8is_denseEv(ptr noundef nonnull align 8 dereferenceable(8) %6)
  %20 = tail call noalias noundef nonnull dereferenceable(64) ptr @_Znwm(i64 noundef 64) #35
  br i1 %19, label %21, label %30

21:                                               ; preds = %18
  invoke void @_ZNK6casadi20SharedObjectInternal16shared_from_thisINS_2MXEEEKT_v(ptr dead_on_unwind nonnull writable sret(%"class.casadi::MX") align 8 %4, ptr noundef nonnull align 8 dereferenceable(24) %1)
          to label %22 unwind label %.thread

22:                                               ; preds = %21
  invoke void @_ZN6casadi9TransposeC2ERKNS_2MXE(ptr noundef nonnull align 8 dereferenceable(64) %20, ptr noundef nonnull align 8 dereferenceable(8) %4)
          to label %24 unwind label %.thread19

.thread19:                                        ; preds = %22
  %23 = landingpad { ptr, i32 }
          cleanup
  call void @_ZN6casadi2MXD1Ev(ptr noundef nonnull align 8 dereferenceable(8) %4) #31
  br label %29

24:                                               ; preds = %22
  store ptr getelementptr inbounds ({ [108 x ptr] }, ptr @_ZTVN6casadi14DenseTransposeE, i64 0, i32 0, i64 2), ptr %20, align 8
  invoke void @_ZN6casadi2MX6createEPNS_6MXNodeE(ptr dead_on_unwind writable sret(%"class.casadi::MX") align 8 %0, ptr noundef nonnull %20)
          to label %25 unwind label %27

25:                                               ; preds = %24
  call void @_ZN6casadi2MXD1Ev(ptr noundef nonnull align 8 dereferenceable(8) %4) #31
  br label %39

.thread:                                          ; preds = %21
  %26 = landingpad { ptr, i32 }
          cleanup
  br label %29

27:                                               ; preds = %24
  %28 = landingpad { ptr, i32 }
          cleanup
  call void @_ZN6casadi2MXD1Ev(ptr noundef nonnull align 8 dereferenceable(8) %4) #31
  br label %40

29:                                               ; preds = %.thread19, %.thread
  %.pn1218 = phi { ptr, i32 } [ %26, %.thread ], [ %23, %.thread19 ]
  call void @_ZdlPv(ptr noundef nonnull %20) #32
  br label %40

30:                                               ; preds = %18
  invoke void @_ZNK6casadi20SharedObjectInternal16shared_from_thisINS_2MXEEEKT_v(ptr dead_on_unwind nonnull writable sret(%"class.casadi::MX") align 8 %5, ptr noundef nonnull align 8 dereferenceable(24) %1)
          to label %31 unwind label %.thread21

31:                                               ; preds = %30
  invoke void @_ZN6casadi9TransposeC1ERKNS_2MXE(ptr noundef nonnull align 8 dereferenceable(64) %20, ptr noundef nonnull align 8 dereferenceable(8) %5)
          to label %33 unwind label %.thread25

.thread25:                                        ; preds = %31
  %32 = landingpad { ptr, i32 }
          cleanup
  call void @_ZN6casadi2MXD1Ev(ptr noundef nonnull align 8 dereferenceable(8) %5) #31
  br label %38

33:                                               ; preds = %31
  invoke void @_ZN6casadi2MX6createEPNS_6MXNodeE(ptr dead_on_unwind writable sret(%"class.casadi::MX") align 8 %0, ptr noundef nonnull %20)
          to label %34 unwind label %36

34:                                               ; preds = %33
  call void @_ZN6casadi2MXD1Ev(ptr noundef nonnull align 8 dereferenceable(8) %5) #31
  br label %39

.thread21:                                        ; preds = %30
  %35 = landingpad { ptr, i32 }
          cleanup
  br label %38

36:                                               ; preds = %33
  %37 = landingpad { ptr, i32 }
          cleanup
  call void @_ZN6casadi2MXD1Ev(ptr noundef nonnull align 8 dereferenceable(8) %5) #31
  br label %40

38:                                               ; preds = %.thread25, %.thread21
  %.pn24 = phi { ptr, i32 } [ %35, %.thread21 ], [ %32, %.thread25 ]
  call void @_ZdlPv(ptr noundef nonnull %20) #32
  br label %40

39:                                               ; preds = %34, %25, %15, %8
  ret void

40:                                               ; preds = %36, %27, %38, %29, %16
  %.pn14 = phi { ptr, i32 } [ %17, %16 ], [ %.pn1218, %29 ], [ %28, %27 ], [ %.pn24, %38 ], [ %37, %36 ]
  resume { ptr, i32 } %.pn14
}